target datalayout = "e-m:e-p270:32:32-p271:32:32-p272:64:64-i64:64-i128:128-f80:128-n8:16:32:64-S128"
target triple = "x86_64-pc-linux-gnu"

; Function Attrs: nounwind uwtable
define internal i32 @luaB_warn(ptr noundef %0) #0 {
  %2 = alloca ptr, align 8
  %3 = alloca i32, align 4
  %4 = alloca i32, align 4
  store ptr %0, ptr %2, align 8, !tbaa !4
  call void @llvm.lifetime.start.p0(i64 4, ptr %3) #6
  %5 = load ptr, ptr %2, align 8, !tbaa !4
  %6 = call i32 @lua_gettop(ptr noundef %5)
  store i32 %6, ptr %3, align 4, !tbaa !10
  call void @llvm.lifetime.start.p0(i64 4, ptr %4) #6
  %7 = load ptr, ptr %2, align 8, !tbaa !4
  %8 = call ptr @luaL_checklstring(ptr noundef %7, i32 noundef 1, ptr noundef null)
  store i32 2, ptr %4, align 4, !tbaa !10
  br label %9

9:                                                ; preds = %17, %1
  %10 = load i32, ptr %4, align 4, !tbaa !10
  %11 = load i32, ptr %3, align 4, !tbaa !10
  %12 = icmp sle i32 %10, %11
  br i1 %12, label %13, label %20

13:                                               ; preds = %9
  %14 = load ptr, ptr %2, align 8, !tbaa !4
  %15 = load i32, ptr %4, align 4, !tbaa !10
  %16 = call ptr @luaL_checklstring(ptr noundef %14, i32 noundef %15, ptr noundef null)
  br label %17

17:                                               ; preds = %13
  %18 = load i32, ptr %4, align 4, !tbaa !10
  %19 = add nsw i32 %18, 1
  store i32 %19, ptr %4, align 4, !tbaa !10
  br label %9

20:                                               ; preds = %9
  store i32 1, ptr %4, align 4, !tbaa !10
  br label %21

21:                                               ; preds = %30, %20
  %22 = load i32, ptr %4, align 4, !tbaa !10
  %23 = load i32, ptr %3, align 4, !tbaa !10
  %24 = icmp slt i32 %22, %23
  br i1 %24, label %25, label %33

25:                                               ; preds = %21
  %26 = load ptr, ptr %2, align 8, !tbaa !4
  %27 = load ptr, ptr %2, align 8, !tbaa !4
  %28 = load i32, ptr %4, align 4, !tbaa !10
  %29 = call ptr @lua_tolstring(ptr noundef %27, i32 noundef %28, ptr noundef null)
  call void @lua_warning(ptr noundef %26, ptr noundef %29, i32 noundef 1)
  br label %30

30:                                               ; preds = %25
  %31 = load i32, ptr %4, align 4, !tbaa !10
  %32 = add nsw i32 %31, 1
  store i32 %32, ptr %4, align 4, !tbaa !10
  br label %21

33:                                               ; preds = %21
  %34 = load ptr, ptr %2, align 8, !tbaa !4
  %35 = load ptr, ptr %2, align 8, !tbaa !4
  %36 = load i32, ptr %3, align 4, !tbaa !10
  %37 = call ptr @lua_tolstring(ptr noundef %35, i32 noundef %36, ptr noundef null)
  call void @lua_warning(ptr noundef %34, ptr noundef %37, i32 noundef 0)
  call void @llvm.lifetime.end.p0(i64 4, ptr %4) #6
  call void @llvm.lifetime.end.p0(i64 4, ptr %3) #6
  ret i32 0
}