; Function Attrs: nounwind uwtable
define internal noundef i32 @luaB_warn(ptr noundef %0) #0 {
  %2 = tail call i32 @lua_gettop(ptr noundef %0) #9
  %3 = tail call ptr @luaL_checklstring(ptr noundef %0, i32 noundef 1, ptr noundef null) #9
  %.not16 = icmp slt i32 %2, 2
  br i1 %.not16, label %._crit_edge, label %.lr.ph

.lr.ph:                                           ; preds = %1, %.lr.ph
  %.017 = phi i32 [ %5, %.lr.ph ], [ 2, %1 ]
  %4 = tail call ptr @luaL_checklstring(ptr noundef %0, i32 noundef %.017, ptr noundef null) #9
  %5 = add nuw i32 %.017, 1
  %exitcond.not = icmp eq i32 %.017, %2
  br i1 %exitcond.not, label %.lr.ph19, label %.lr.ph

.lr.ph19:                                         ; preds = %.lr.ph, %.lr.ph19
  %.118 = phi i32 [ %7, %.lr.ph19 ], [ 1, %.lr.ph ]
  %6 = tail call ptr @lua_tolstring(ptr noundef %0, i32 noundef %.118, ptr noundef null) #9
  tail call void @lua_warning(ptr noundef %0, ptr noundef %6, i32 noundef 1) #9
  %7 = add nuw nsw i32 %.118, 1
  %exitcond20.not = icmp eq i32 %7, %2
  br i1 %exitcond20.not, label %._crit_edge, label %.lr.ph19

._crit_edge:                                      ; preds = %.lr.ph19, %1
  %8 = tail call ptr @lua_tolstring(ptr noundef %0, i32 noundef %2, ptr noundef null) #9
  tail call void @lua_warning(ptr noundef %0, ptr noundef %8, i32 noundef 0) #9
  ret i32 0
}